target datalayout = "e-m:e-p270:32:32-p271:32:32-p272:64:64-i64:64-i128:128-f80:128-n8:16:32:64-S128"
target triple = "x86_64-pc-linux-gnu"

%struct.pollfd = type { i32, i16, i16 }

; Function Attrs: nounwind uwtable
define internal i32 @handle_nonblock(i32 noundef %0, i16 noundef signext %1, i32 noundef %2) #0 {
  %4 = alloca i32, align 4
  %5 = alloca i32, align 4
  %6 = alloca i16, align 2
  %7 = alloca i32, align 4
  %8 = alloca %struct.pollfd, align 4
  %9 = alloca i32, align 4
  store i32 %0, ptr %5, align 4, !tbaa !11
  store i16 %1, ptr %6, align 2, !tbaa !15
  store i32 %2, ptr %7, align 4, !tbaa !11
  call void @llvm.lifetime.start.p0(i64 8, ptr %8) #13
  %10 = load i32, ptr %7, align 4, !tbaa !11
  %11 = icmp ne i32 %10, 11
  br i1 %11, label %12, label %16

12:                                               ; preds = %3
  %13 = load i32, ptr %7, align 4, !tbaa !11
  %14 = icmp ne i32 %13, 11
  br i1 %14, label %15, label %16

15:                                               ; preds = %12
  store i32 0, ptr %4, align 4
  store i32 1, ptr %9, align 4
  br label %22

16:                                               ; preds = %12, %3
  %17 = load i32, ptr %5, align 4, !tbaa !11
  %18 = getelementptr inbounds nuw %struct.pollfd, ptr %8, i32 0, i32 0
  store i32 %17, ptr %18, align 4, !tbaa !17
  %19 = load i16, ptr %6, align 2, !tbaa !15
  %20 = getelementptr inbounds nuw %struct.pollfd, ptr %8, i32 0, i32 1
  store i16 %19, ptr %20, align 4, !tbaa !19
  %21 = call i32 @poll(ptr noundef %8, i64 noundef 1, i32 noundef -1)
  store i32 1, ptr %4, align 4
  store i32 1, ptr %9, align 4
  br label %22

22:                                               ; preds = %16, %15
  call void @llvm.lifetime.end.p0(i64 8, ptr %8) #13
  %23 = load i32, ptr %4, align 4
  ret i32 %23
}

; Function Attrs: nounwind uwtable
define dso_local i64 @xread(i32 noundef %0, ptr noundef %1, i64 noundef %2) #0 {
  %4 = alloca i32, align 4
  %5 = alloca ptr, align 8
  %6 = alloca i64, align 8
  %7 = alloca i64, align 8
  store i32 %0, ptr %4, align 4, !tbaa !11
  store ptr %1, ptr %5, align 8, !tbaa !13
  store i64 %2, ptr %6, align 8, !tbaa !9
  call void @llvm.lifetime.start.p0(i64 8, ptr %7) #13
  %8 = load i64, ptr %6, align 8, !tbaa !9
  %9 = icmp ugt i64 %8, 8388608
  br i1 %9, label %10, label %11

10:                                               ; preds = %3
  store i64 8388608, ptr %6, align 8, !tbaa !9
  br label %11

11:                                               ; preds = %10, %3
  br label %12

12:                                               ; preds = %31, %24, %11
  br label %13

13:                                               ; preds = %12
  %14 = load i32, ptr %4, align 4, !tbaa !11
  %15 = load ptr, ptr %5, align 8, !tbaa !13
  %16 = load i64, ptr %6, align 8, !tbaa !9
  %17 = call i64 @read(i32 noundef %14, ptr noundef %15, i64 noundef %16)
  store i64 %17, ptr %7, align 8, !tbaa !9
  %18 = load i64, ptr %7, align 8, !tbaa !9
  %19 = icmp slt i64 %18, 0
  br i1 %19, label %20, label %33

20:                                               ; preds = %13
  %21 = call ptr @__errno_location() #19
  %22 = load i32, ptr %21, align 4, !tbaa !11
  %23 = icmp eq i32 %22, 4
  br i1 %23, label %24, label %25

24:                                               ; preds = %20
  br label %12

25:                                               ; preds = %20
  %26 = load i32, ptr %4, align 4, !tbaa !11
  %27 = call ptr @__errno_location() #19
  %28 = load i32, ptr %27, align 4, !tbaa !11
  %29 = call i32 @handle_nonblock(i32 noundef %26, i16 noundef signext 1, i32 noundef %28)
  %30 = icmp ne i32 %29, 0
  br i1 %30, label %31, label %32

31:                                               ; preds = %25
  br label %12

32:                                               ; preds = %25
  br label %33

33:                                               ; preds = %32, %13
  %34 = load i64, ptr %7, align 8, !tbaa !9
  call void @llvm.lifetime.end.p0(i64 8, ptr %7) #13
  ret i64 %34
}