; Function Attrs: nounwind uwtable
define dso_local noundef i64 @xread(i32 noundef %0, ptr noundef captures(none) %1, i64 noundef %2) local_unnamed_addr #0 {
  %4 = alloca %struct.pollfd, align 4
  %spec.store.select = tail call i64 @llvm.umin.i64(i64 %2, i64 8388608)
  %5 = tail call i64 @read(i32 noundef %0, ptr noundef %1, i64 noundef %spec.store.select) #20
  %6 = icmp slt i64 %5, 0
  br i1 %6, label %.lr.ph, label %.loopexit

.lr.ph:                                           ; preds = %3
  %7 = tail call ptr @__errno_location() #26
  %8 = getelementptr inbounds nuw i8, ptr %4, i64 4
  br label %9

9:                                                ; preds = %.lr.ph, %.backedge
  %10 = phi i64 [ %5, %.lr.ph ], [ %13, %.backedge ]
  %11 = load i32, ptr %7, align 4, !tbaa !9
  %12 = icmp eq i32 %11, 4
  br i1 %12, label %.backedge, label %15

.backedge:                                        ; preds = %9, %handle_nonblock.exit
  %13 = call i64 @read(i32 noundef %0, ptr noundef %1, i64 noundef %spec.store.select) #20
  %14 = icmp slt i64 %13, 0
  br i1 %14, label %9, label %.loopexit

15:                                               ; preds = %9
  call void @llvm.lifetime.start.p0(i64 8, ptr nonnull %4) #20
  %.not.i = icmp eq i32 %11, 11
  br i1 %.not.i, label %handle_nonblock.exit, label %handle_nonblock.exit.thread

handle_nonblock.exit.thread:                      ; preds = %15
  call void @llvm.lifetime.end.p0(i64 8, ptr nonnull %4) #20
  br label %.loopexit

handle_nonblock.exit:                             ; preds = %15
  store i32 %0, ptr %4, align 4, !tbaa !11
  store i16 1, ptr %8, align 4, !tbaa !14
  %16 = call i32 @poll(ptr noundef nonnull %4, i64 noundef 1, i32 noundef -1) #20
  call void @llvm.lifetime.end.p0(i64 8, ptr nonnull %4) #20
  br label %.backedge

.loopexit:                                        ; preds = %.backedge, %3, %handle_nonblock.exit.thread
  %17 = phi i64 [ %10, %handle_nonblock.exit.thread ], [ %5, %3 ], [ %13, %.backedge ]
  ret i64 %17
}